target datalayout = "e-m:e-p270:32:32-p271:32:32-p272:64:64-i64:64-i128:128-f80:128-n8:16:32:64-S128"
target triple = "x86_64-pc-linux-gnu"

@.str.14 = private unnamed_addr constant [6 x i8] c"QF_FD\00", align 1
@.str.15 = private unnamed_addr constant [5 x i8] c"HORN\00", align 1
@.str.31 = private unnamed_addr constant [4 x i8] c"ALL\00", align 1

; Function Attrs: mustprogress uwtable
define hidden noundef zeroext i1 @_ZN10smt_logics14logic_has_hornERK6symbol(ptr noundef nonnull align 8 dereferenceable(8) %0) #4 align 2 {
  %2 = alloca ptr, align 8
  store ptr %0, ptr %2, align 8, !tbaa !3
  %3 = load ptr, ptr %2, align 8, !tbaa !3
  %4 = call noundef zeroext i1 @_ZeqRK6symbolPKc(ptr noundef nonnull align 8 dereferenceable(8) %3, ptr noundef @.str.15)
  ret i1 %4
}

; Function Attrs: mustprogress uwtable
define linkonce_odr hidden noundef zeroext i1 @_ZN10smt_logics12logic_is_allERK6symbol(ptr noundef nonnull align 8 dereferenceable(8) %0) #4 comdat align 2 {
  %2 = alloca ptr, align 8
  store ptr %0, ptr %2, align 8, !tbaa !3
  %3 = load ptr, ptr %2, align 8, !tbaa !3
  %4 = call noundef zeroext i1 @_ZeqRK6symbolPKc(ptr noundef nonnull align 8 dereferenceable(8) %3, ptr noundef @.str.31)
  ret i1 %4
}

; Function Attrs: mustprogress uwtable
define hidden noundef zeroext i1 @_ZN10smt_logics12logic_has_pbERK6symbol(ptr noundef nonnull align 8 dereferenceable(8) %0) #4 align 2 {
  %2 = alloca ptr, align 8
  store ptr %0, ptr %2, align 8, !tbaa !3
  %3 = load ptr, ptr %2, align 8, !tbaa !3
  %4 = call noundef zeroext i1 @_ZeqRK6symbolPKc(ptr noundef nonnull align 8 dereferenceable(8) %3, ptr noundef @.str.14)
  br i1 %4, label %11, label %5

5:                                                ; preds = %1
  %6 = load ptr, ptr %2, align 8, !tbaa !3
  %7 = call noundef zeroext i1 @_ZN10smt_logics12logic_is_allERK6symbol(ptr noundef nonnull align 8 dereferenceable(8) %6)
  br i1 %7, label %11, label %8

8:                                                ; preds = %5
  %9 = load ptr, ptr %2, align 8, !tbaa !3
  %10 = call noundef zeroext i1 @_ZN10smt_logics14logic_has_hornERK6symbol(ptr noundef nonnull align 8 dereferenceable(8) %9)
  br label %11

11:                                               ; preds = %8, %5, %1
  %12 = phi i1 [ true, %5 ], [ true, %1 ], [ %10, %8 ]
  ret i1 %12
}