; Function Attrs: mustprogress uwtable
define hidden noundef zeroext i1 @_ZN10smt_logics12logic_has_pbERK6symbol(ptr noundef nonnull align 8 dereferenceable(8) %0) local_unnamed_addr #3 align 2 {
  %2 = tail call noundef zeroext i1 @_ZeqRK6symbolPKc(ptr noundef nonnull align 8 dereferenceable(8) %0, ptr noundef nonnull @.str.14)
  br i1 %2, label %7, label %3

3:                                                ; preds = %1
  %4 = tail call noundef zeroext i1 @_ZeqRK6symbolPKc(ptr noundef nonnull align 8 dereferenceable(8) %0, ptr noundef nonnull @.str.31)
  br i1 %4, label %7, label %5

5:                                                ; preds = %3
  %6 = tail call noundef zeroext i1 @_ZeqRK6symbolPKc(ptr noundef nonnull align 8 dereferenceable(8) %0, ptr noundef nonnull @.str.15)
  br label %7

7:                                                ; preds = %5, %3, %1
  %8 = phi i1 [ true, %3 ], [ true, %1 ], [ %6, %5 ]
  ret i1 %8
}